Certificate:
    Data:
        Version: 3 (0x2)
        Serial Number: 4 (0x4)
        Signature Algorithm: sha1WithRSAEncryption
        Issuer: C=US, ST=NY, L=Syracuse, O=Syracuse University, OU=EECS, CN=PKILabCA/emailAddress=pkilabca@syr.edu
        Validity
            Not Before: Apr 19 04:09:05 2012 GMT
            Not After : Apr 19 04:09:05 2013 GMT
        Subject: C=US, ST=NY, L=Syracuse, O=Syracuse University, OU=EECS, CN=VPNServer/emailAddress=vpnserver@syr.edu
        Subject Public Key Info:
            Public Key Algorithm: rsaEncryption
            RSA Public Key: (512 bit)
                Modulus (512 bit):
                    00:d3:55:75:48:6d:c6:65:b2:f3:d3:44:fe:32:0d:
                    e2:14:23:c0:5e:b4:01:91:27:f9:f9:a4:b2:5b:03:
                    87:b5:f6:6d:6b:6f:5f:35:33:12:58:1e:0c:c1:d5:
                    5c:97:b8:ee:f9:eb:03:39:27:a5:f4:8b:82:c5:58:
                    11:94:1d:a4:1b
                Exponent: 65537 (0x10001)
        X509v3 extensions:
            X509v3 Basic Constraints: 
                CA:FALSE
            Netscape Comment: 
                OpenSSL Generated Certificate
            X509v3 Subject Key Identifier: 
                77:33:30:C8:1A:04:81:2E:9A:3D:84:45:A1:8F:A1:07:9F:98:25:20
            X509v3 Authority Key Identifier: 
                keyid:65:71:F3:D7:4A:96:BF:B3:34:22:69:4C:A7:C8:07:78:A2:08:8F:4B

    Signature Algorithm: sha1WithRSAEncryption
        75:1f:40:c7:d8:81:39:6a:9d:a2:f5:15:c3:4e:0a:be:ad:0c:
        3a:5b:7f:e0:44:72:45:94:42:4c:32:03:69:c7:9f:6d:fd:0a:
        9b:64:3c:31:a5:c9:4a:e4:b8:3a:24:3a:0f:2a:d0:ec:1e:9b:
        b5:02:1f:55:46:4e:d4:09:d4:73:6f:7d:b8:57:35:30:ad:82:
        98:0c:d4:56:54:b5:5b:58:ac:36:1a:cd:70:6c:7b:09:b1:8c:
        49:40:5d:de:ef:c6:b7:b4:5e:14:d6:95:1e:12:19:d1:c4:30:
        5d:cd:56:f7:f5:80:dc:0f:be:7d:00:2e:a8:b9:36:6e:6d:bb:
        99:49
-----BEGIN CERTIFICATE-----
MIICzTCCAjagAwIBAgIBBDANBgkqhkiG9w0BAQUFADCBjjELMAkGA1UEBhMCVVMx
CzAJBgNVBAgTAk5ZMREwDwYDVQQHEwhTeXJhY3VzZTEcMBoGA1UEChMTU3lyYWN1
c2UgVW5pdmVyc2l0eTENMAsGA1UECxMERUVDUzERMA8GA1UEAxMIUEtJTGFiQ0Ex
HzAdBgkqhkiG9w0BCQEWEHBraWxhYmNhQHN5ci5lZHUwHhcNMTIwNDE5MDQwOTA1
WhcNMTMwNDE5MDQwOTA1WjCBkDELMAkGA1UEBhMCVVMxCzAJBgNVBAgTAk5ZMREw
DwYDVQQHEwhTeXJhY3VzZTEcMBoGA1UEChMTU3lyYWN1c2UgVW5pdmVyc2l0eTEN
MAsGA1UECxMERUVDUzESMBAGA1UEAxMJVlBOU2VydmVyMSAwHgYJKoZIhvcNAQkB
FhF2cG5zZXJ2ZXJAc3lyLmVkdTBcMA0GCSqGSIb3DQEBAQUAA0sAMEgCQQDTVXVI
bcZlsvPTRP4yDeIUI8BetAGRJ/n5pLJbA4e19m1rb181MxJYHgzB1VyXuO756wM5
J6X0i4LFWBGUHaQbAgMBAAGjezB5MAkGA1UdEwQCMAAwLAYJYIZIAYb4QgENBB8W
HU9wZW5TU0wgR2VuZXJhdGVkIENlcnRpZmljYXRlMB0GA1UdDgQWBBR3MzDIGgSB
Lpo9hEWhj6EHn5glIDAfBgNVHSMEGDAWgBRlcfPXSpa/szQiaUynyAd4ogiPSzAN
BgkqhkiG9w0BAQUFAAOBgQB1H0DH2IE5ap2i9RXDTgq+rQw6W3/gRHJFlEJMMgNp
x59t/QqbZDwxpclK5Lg6JDoPKtDsHpu1Ah9VRk7UCdRzb324VzUwrYKYDNRWVLVb
WKw2Gs1wbHsJsYxJQF3e78a3tF4U1pUeEhnRxDBdzVb39YDcD759AC6ouTZubbuZ
SQ==
-----END CERTIFICATE-----
